target datalayout = "e-m:e-p270:32:32-p271:32:32-p272:64:64-i64:64-i128:128-f80:128-n8:16:32:64-S128"
target triple = "x86_64-unknown-linux-gnu"

%struct.CPUWatchpoint = type { i64, i64, i64, %struct.MemTxAttrs, i32, %union.anon }
%struct.MemTxAttrs = type { i32 }
%union.anon = type { %struct.QTailQLink }
%struct.QTailQLink = type { ptr, ptr }
%struct.CPUState = type { %struct.DeviceState, ptr, i32, i32, ptr, i32, i8, i8, ptr, i8, i8, i8, i8, i8, i8, i8, i8, i32, i32, i32, i32, i64, i64, i64, [1 x %struct.__jmp_buf_tag], %struct.QemuMutex, %struct.anon, ptr, i32, ptr, ptr, ptr, ptr, i32, i32, %union.anon.0, %union.anon.1, %union.anon.2, ptr, ptr, i64, i32, ptr, ptr, ptr, i32, i64, i32, %struct.QemuLockCnt, [1 x i64], ptr, i32, i32, i32, i32, i32, ptr, i8, i8, i64, i8, i8, ptr, [8 x i8], [0 x i8], %struct.CPUNegativeOffsetState }
%struct.DeviceState = type { %struct.Object, ptr, ptr, i8, i8, i64, ptr, i32, i8, ptr, %struct.NamedGPIOListHead, %struct.NamedClockListHead, %struct.BusStateHead, i32, i32, i32, %struct.ResettableState, ptr, %struct.MemReentrancyGuard }
%struct.Object = type { ptr, ptr, ptr, i32, ptr }
%struct.NamedGPIOListHead = type { ptr }
%struct.NamedClockListHead = type { ptr }
%struct.BusStateHead = type { ptr }
%struct.ResettableState = type { i32, i8, i8 }
%struct.MemReentrancyGuard = type { i8 }
%struct.__jmp_buf_tag = type { [8 x i64], i32, %struct.__sigset_t }
%struct.__sigset_t = type { [16 x i64] }
%struct.QemuMutex = type { %union.pthread_mutex_t, i8 }
%union.pthread_mutex_t = type { %struct.__pthread_mutex_s }
%struct.__pthread_mutex_s = type { i32, i32, i32, i32, i32, i16, i16, %struct.__pthread_internal_list }
%struct.__pthread_internal_list = type { ptr, ptr }
%struct.anon = type { ptr, ptr }
%union.anon.0 = type { %struct.QTailQLink }
%union.anon.1 = type { %struct.QTailQLink }
%union.anon.2 = type { %struct.QTailQLink }
%struct.QemuLockCnt = type { i32 }
%struct.CPUNegativeOffsetState = type { %struct.CPUTLB, %union.IcountDecr, i8, [11 x i8] }
%struct.CPUTLB = type { %struct.CPUTLBCommon, [16 x %struct.CPUTLBDesc], [16 x %struct.CPUTLBDescFast] }
%struct.CPUTLBCommon = type { %struct.QemuSpin, i16, i64, i64, i64 }
%struct.QemuSpin = type { i32 }
%struct.CPUTLBDesc = type { i64, i64, i64, i64, i64, i64, [8 x %union.CPUTLBEntry], [8 x %struct.CPUTLBEntryFull], ptr }
%union.CPUTLBEntry = type { %struct.anon.3 }
%struct.anon.3 = type { i64, i64, i64, i64 }
%struct.CPUTLBEntryFull = type { i64, i64, %struct.MemTxAttrs, i8, i8, [3 x i8], %union.anon.4 }
%union.anon.4 = type { %struct.anon.5 }
%struct.anon.5 = type { i8, i8, i8 }
%struct.CPUTLBDescFast = type { i64, ptr }
%union.IcountDecr = type { i32 }

; Function Attrs: nounwind sspstrong uwtable
define dso_local void @cpu_watchpoint_remove_by_ref(ptr noundef %cpu, ptr noundef %watchpoint) #0 {
entry:
  %cpu.addr = alloca ptr, align 8
  %watchpoint.addr = alloca ptr, align 8
  store ptr %cpu, ptr %cpu.addr, align 8
  store ptr %watchpoint, ptr %watchpoint.addr, align 8
  br label %do.body

do.body:                                          ; preds = %entry
  %0 = load ptr, ptr %watchpoint.addr, align 8
  %entry1 = getelementptr inbounds %struct.CPUWatchpoint, ptr %0, i32 0, i32 5
  %1 = load ptr, ptr %entry1, align 8
  %cmp = icmp ne ptr %1, null
  br i1 %cmp, label %if.then, label %if.else

if.then:                                          ; preds = %do.body
  %2 = load ptr, ptr %watchpoint.addr, align 8
  %entry2 = getelementptr inbounds %struct.CPUWatchpoint, ptr %2, i32 0, i32 5
  %tql_prev = getelementptr inbounds %struct.QTailQLink, ptr %entry2, i32 0, i32 1
  %3 = load ptr, ptr %tql_prev, align 8
  %4 = load ptr, ptr %watchpoint.addr, align 8
  %entry3 = getelementptr inbounds %struct.CPUWatchpoint, ptr %4, i32 0, i32 5
  %5 = load ptr, ptr %entry3, align 8
  %entry4 = getelementptr inbounds %struct.CPUWatchpoint, ptr %5, i32 0, i32 5
  %tql_prev5 = getelementptr inbounds %struct.QTailQLink, ptr %entry4, i32 0, i32 1
  store ptr %3, ptr %tql_prev5, align 8
  br label %if.end

if.else:                                          ; preds = %do.body
  %6 = load ptr, ptr %watchpoint.addr, align 8
  %entry6 = getelementptr inbounds %struct.CPUWatchpoint, ptr %6, i32 0, i32 5
  %tql_prev7 = getelementptr inbounds %struct.QTailQLink, ptr %entry6, i32 0, i32 1
  %7 = load ptr, ptr %tql_prev7, align 8
  %8 = load ptr, ptr %cpu.addr, align 8
  %watchpoints = getelementptr inbounds %struct.CPUState, ptr %8, i32 0, i32 37
  %tql_prev8 = getelementptr inbounds %struct.QTailQLink, ptr %watchpoints, i32 0, i32 1
  store ptr %7, ptr %tql_prev8, align 8
  br label %if.end

if.end:                                           ; preds = %if.else, %if.then
  %9 = load ptr, ptr %watchpoint.addr, align 8
  %entry9 = getelementptr inbounds %struct.CPUWatchpoint, ptr %9, i32 0, i32 5
  %10 = load ptr, ptr %entry9, align 8
  %11 = load ptr, ptr %watchpoint.addr, align 8
  %entry10 = getelementptr inbounds %struct.CPUWatchpoint, ptr %11, i32 0, i32 5
  %tql_prev11 = getelementptr inbounds %struct.QTailQLink, ptr %entry10, i32 0, i32 1
  %12 = load ptr, ptr %tql_prev11, align 8
  %tql_next = getelementptr inbounds %struct.QTailQLink, ptr %12, i32 0, i32 0
  store ptr %10, ptr %tql_next, align 8
  %13 = load ptr, ptr %watchpoint.addr, align 8
  %entry12 = getelementptr inbounds %struct.CPUWatchpoint, ptr %13, i32 0, i32 5
  %tql_prev13 = getelementptr inbounds %struct.QTailQLink, ptr %entry12, i32 0, i32 1
  store ptr null, ptr %tql_prev13, align 8
  %14 = load ptr, ptr %watchpoint.addr, align 8
  %entry14 = getelementptr inbounds %struct.CPUWatchpoint, ptr %14, i32 0, i32 5
  %tql_next15 = getelementptr inbounds %struct.QTailQLink, ptr %entry14, i32 0, i32 0
  store ptr null, ptr %tql_next15, align 8
  %15 = load ptr, ptr %watchpoint.addr, align 8
  %entry16 = getelementptr inbounds %struct.CPUWatchpoint, ptr %15, i32 0, i32 5
  store ptr null, ptr %entry16, align 8
  br label %do.end

do.end:                                           ; preds = %if.end
  %16 = load ptr, ptr %cpu.addr, align 8
  %17 = load ptr, ptr %watchpoint.addr, align 8
  %vaddr = getelementptr inbounds %struct.CPUWatchpoint, ptr %17, i32 0, i32 0
  %18 = load i64, ptr %vaddr, align 8
  call void @tlb_flush_page(ptr noundef %16, i64 noundef %18)
  %19 = load ptr, ptr %watchpoint.addr, align 8
  call void @g_free(ptr noundef %19)
  ret void
}

; Function Attrs: nounwind sspstrong uwtable
define dso_local void @cpu_watchpoint_remove_all(ptr noundef %cpu, i32 noundef %mask) #0 {
entry:
  %cpu.addr = alloca ptr, align 8
  %mask.addr = alloca i32, align 4
  %wp = alloca ptr, align 8
  %next = alloca ptr, align 8
  store ptr %cpu, ptr %cpu.addr, align 8
  store i32 %mask, ptr %mask.addr, align 4
  %0 = load ptr, ptr %cpu.addr, align 8
  %watchpoints = getelementptr inbounds %struct.CPUState, ptr %0, i32 0, i32 37
  %1 = load ptr, ptr %watchpoints, align 8
  store ptr %1, ptr %wp, align 8
  br label %for.cond

for.cond:                                         ; preds = %for.inc, %entry
  %2 = load ptr, ptr %wp, align 8
  %tobool = icmp ne ptr %2, null
  br i1 %tobool, label %land.rhs, label %land.end

land.rhs:                                         ; preds = %for.cond
  %3 = load ptr, ptr %wp, align 8
  %entry1 = getelementptr inbounds %struct.CPUWatchpoint, ptr %3, i32 0, i32 5
  %4 = load ptr, ptr %entry1, align 8
  store ptr %4, ptr %next, align 8
  br label %land.end

land.end:                                         ; preds = %land.rhs, %for.cond
  %5 = phi i1 [ false, %for.cond ], [ true, %land.rhs ]
  br i1 %5, label %for.body, label %for.end

for.body:                                         ; preds = %land.end
  %6 = load ptr, ptr %wp, align 8
  %flags = getelementptr inbounds %struct.CPUWatchpoint, ptr %6, i32 0, i32 4
  %7 = load i32, ptr %flags, align 4
  %8 = load i32, ptr %mask.addr, align 4
  %and = and i32 %7, %8
  %tobool2 = icmp ne i32 %and, 0
  br i1 %tobool2, label %if.then, label %if.end

if.then:                                          ; preds = %for.body
  %9 = load ptr, ptr %cpu.addr, align 8
  %10 = load ptr, ptr %wp, align 8
  call void @cpu_watchpoint_remove_by_ref(ptr noundef %9, ptr noundef %10)
  br label %if.end

if.end:                                           ; preds = %if.then, %for.body
  br label %for.inc

for.inc:                                          ; preds = %if.end
  %11 = load ptr, ptr %next, align 8
  store ptr %11, ptr %wp, align 8
  br label %for.cond, !llvm.loop !7

for.end:                                          ; preds = %land.end
  ret void
}