; Function Attrs: nounwind sspstrong uwtable
define dso_local void @cpu_watchpoint_remove_all(ptr noundef %cpu, i32 noundef %mask) local_unnamed_addr #0 {
entry:
  %watchpoints = getelementptr inbounds nuw i8, ptr %cpu, i64 600
  %0 = load ptr, ptr %watchpoints, align 8
  %tobool.not5 = icmp eq ptr %0, null
  br i1 %tobool.not5, label %for.end, label %land.rhs.lr.ph

land.rhs.lr.ph:                                   ; preds = %entry
  %tql_prev8.i = getelementptr inbounds nuw i8, ptr %cpu, i64 608
  br label %land.rhs

land.rhs:                                         ; preds = %land.rhs.lr.ph, %for.inc
  %wp.06 = phi ptr [ %0, %land.rhs.lr.ph ], [ %1, %for.inc ]
  %entry1 = getelementptr inbounds nuw i8, ptr %wp.06, i64 32
  %1 = load ptr, ptr %entry1, align 8
  %flags = getelementptr inbounds nuw i8, ptr %wp.06, i64 28
  %2 = load i32, ptr %flags, align 4
  %and = and i32 %2, %mask
  %tobool2.not = icmp eq i32 %and, 0
  br i1 %tobool2.not, label %for.inc, label %if.then

if.then:                                          ; preds = %land.rhs
  %cmp.not.i = icmp eq ptr %1, null
  %tql_prev7.i = getelementptr inbounds nuw i8, ptr %wp.06, i64 40
  %3 = load ptr, ptr %tql_prev7.i, align 8
  br i1 %cmp.not.i, label %if.else.i, label %if.then.i

if.then.i:                                        ; preds = %if.then
  %tql_prev5.i = getelementptr inbounds nuw i8, ptr %1, i64 40
  store ptr %3, ptr %tql_prev5.i, align 8
  br label %cpu_watchpoint_remove_by_ref.exit

if.else.i:                                        ; preds = %if.then
  store ptr %3, ptr %tql_prev8.i, align 8
  br label %cpu_watchpoint_remove_by_ref.exit

cpu_watchpoint_remove_by_ref.exit:                ; preds = %if.then.i, %if.else.i
  %4 = load ptr, ptr %entry1, align 8
  store ptr %4, ptr %3, align 8
  tail call void @llvm.memset.p0.i64(ptr noundef nonnull align 8 dereferenceable(16) %entry1, i8 0, i64 16, i1 false)
  %5 = load i64, ptr %wp.06, align 8
  tail call void @tlb_flush_page(ptr noundef %cpu, i64 noundef %5) #8
  tail call void @g_free(ptr noundef nonnull %wp.06) #8
  br label %for.inc

for.inc:                                          ; preds = %land.rhs, %cpu_watchpoint_remove_by_ref.exit
  %tobool.not = icmp eq ptr %1, null
  br i1 %tobool.not, label %for.end, label %land.rhs, !llvm.loop !7

for.end:                                          ; preds = %for.inc, %entry
  ret void
}